; Function Attrs: mustprogress uwtable
define noundef i32 @_ZNK6casadi6Concat10sp_forwardEPPKyPPyPxS4_(ptr noundef nonnull align 8 dereferenceable(64) %0, ptr nocapture noundef readonly %1, ptr nocapture noundef readonly %2, ptr nocapture readnone %3, ptr nocapture readnone %4) unnamed_addr #3 align 2 {
  %6 = load ptr, ptr %2, align 8
  %7 = tail call noundef i64 @_ZNK6casadi6MXNode5n_depEv(ptr noundef nonnull align 8 dereferenceable(64) %0)
  %8 = icmp sgt i64 %7, 0
  br i1 %8, label %.lr.ph, label %._crit_edge

.lr.ph:                                           ; preds = %5
  %9 = getelementptr inbounds i8, ptr %0, i64 32
  %10 = getelementptr inbounds i8, ptr %0, i64 40
  br label %11

11:                                               ; preds = %.lr.ph, %_ZSt4copyIPKyPyET0_T_S4_S3_.exit
  %.016 = phi ptr [ %6, %.lr.ph ], [ %25, %_ZSt4copyIPKyPyET0_T_S4_S3_.exit ]
  %.01215 = phi i64 [ 0, %.lr.ph ], [ %26, %_ZSt4copyIPKyPyET0_T_S4_S3_.exit ]
  %12 = load ptr, ptr %10, align 8
  %13 = load ptr, ptr %9, align 8
  %14 = ptrtoint ptr %12 to i64
  %15 = ptrtoint ptr %13 to i64
  %16 = sub i64 %14, %15
  %17 = ashr exact i64 %16, 3
  %.not.i.i.i = icmp ugt i64 %17, %.01215
  br i1 %.not.i.i.i, label %_ZNK6casadi6MXNode3depEx.exit, label %18

18:                                               ; preds = %11
  tail call void (ptr, ...) @_ZSt24__throw_out_of_range_fmtPKcz(ptr noundef nonnull @.str.27, i64 noundef %.01215, i64 noundef %17) #19
  unreachable

_ZNK6casadi6MXNode3depEx.exit:                    ; preds = %11
  %19 = getelementptr inbounds %"class.casadi::MX", ptr %13, i64 %.01215
  %20 = tail call noundef nonnull align 8 dereferenceable(8) ptr @_ZNK6casadi2MX8sparsityEv(ptr noundef nonnull align 8 dereferenceable(8) %19)
  %21 = tail call noundef i64 @_ZNK6casadi8Sparsity3nnzEv(ptr noundef nonnull align 8 dereferenceable(8) %20)
  %.not.i.i.i.i.i = icmp eq i64 %21, 0
  br i1 %.not.i.i.i.i.i, label %_ZSt4copyIPKyPyET0_T_S4_S3_.exit, label %22

22:                                               ; preds = %_ZNK6casadi6MXNode3depEx.exit
  %23 = getelementptr inbounds ptr, ptr %1, i64 %.01215
  %24 = load ptr, ptr %23, align 8
  %.idx = shl nsw i64 %21, 3
  tail call void @llvm.memmove.p0.p0.i64(ptr align 8 %.016, ptr align 8 %24, i64 %.idx, i1 false)
  br label %_ZSt4copyIPKyPyET0_T_S4_S3_.exit

_ZSt4copyIPKyPyET0_T_S4_S3_.exit:                 ; preds = %_ZNK6casadi6MXNode3depEx.exit, %22
  %25 = getelementptr inbounds i64, ptr %.016, i64 %21
  %26 = add nuw nsw i64 %.01215, 1
  %27 = tail call noundef i64 @_ZNK6casadi6MXNode5n_depEv(ptr noundef nonnull align 8 dereferenceable(64) %0)
  %28 = icmp slt i64 %26, %27
  br i1 %28, label %11, label %._crit_edge, !llvm.loop !8

._crit_edge:                                      ; preds = %_ZSt4copyIPKyPyET0_T_S4_S3_.exit, %5
  ret i32 0
}